
key.o:     file format elf32-littlearm

Disassembly of section .text:

00000000 <Key_ISR>:
   0:	e52dc004 	str	ip, [sp, #-4]!
   4:	e1a0c00d 	mov	ip, sp
   8:	e92dd80f 	stmdb	sp!, {r0, r1, r2, r3, fp, ip, lr, pc}
   c:	e24cb004 	sub	fp, ip, #4	; 0x4
  10:	e24dd008 	sub	sp, sp, #8	; 0x8
  14:	e59f2120 	ldr	r2, [pc, #288]	; 13c <.text+0x13c>
  18:	e59f311c 	ldr	r3, [pc, #284]	; 13c <.text+0x13c>
  1c:	e5933000 	ldr	r3, [r3]
  20:	e3833018 	orr	r3, r3, #24	; 0x18
  24:	e5823000 	str	r3, [r2]
  28:	e59f2110 	ldr	r2, [pc, #272]	; 140 <.text+0x140>
  2c:	e59f310c 	ldr	r3, [pc, #268]	; 140 <.text+0x140>
  30:	e5933000 	ldr	r3, [r3]
  34:	e3833010 	orr	r3, r3, #16	; 0x10
  38:	e5823000 	str	r3, [r2]
  3c:	e59f3100 	ldr	r3, [pc, #256]	; 144 <.text+0x144>
  40:	e5933000 	ldr	r3, [r3]
  44:	e50b3024 	str	r3, [fp, #-36]
  48:	e59f20f4 	ldr	r2, [pc, #244]	; 144 <.text+0x144>
  4c:	e59f30f0 	ldr	r3, [pc, #240]	; 144 <.text+0x144>
  50:	e5933000 	ldr	r3, [r3]
  54:	e3c33d0f 	bic	r3, r3, #960	; 0x3c0
  58:	e5823000 	str	r3, [r2]
  5c:	e59f20e4 	ldr	r2, [pc, #228]	; 148 <.text+0x148>
  60:	e59f30e0 	ldr	r3, [pc, #224]	; 148 <.text+0x148>
  64:	e5933000 	ldr	r3, [r3]
  68:	e3833018 	orr	r3, r3, #24	; 0x18
  6c:	e5823000 	str	r3, [r2]
  70:	ebfffffe 	bl	2fc <Key_Get_Pressed>
  74:	e1a03000 	mov	r3, r0
  78:	e50b3020 	str	r3, [fp, #-32]
  7c:	e51b3020 	ldr	r3, [fp, #-32]
  80:	e3530000 	cmp	r3, #0	; 0x0
  84:	0a00001a 	beq	70 <Key_ISR+0x70>
  88:	e59f00bc 	ldr	r0, [pc, #188]	; 14c <.text+0x14c>
  8c:	e51b1020 	ldr	r1, [fp, #-32]
  90:	ebfffffe 	bl	0 <Uart_Printf>
  94:	e59f20a8 	ldr	r2, [pc, #168]	; 144 <.text+0x144>
  98:	e51b3024 	ldr	r3, [fp, #-36]
  9c:	e5823000 	str	r3, [r2]
  a0:	e59f20a8 	ldr	r2, [pc, #168]	; 150 <.text+0x150>
  a4:	e59f30a4 	ldr	r3, [pc, #164]	; 150 <.text+0x150>
  a8:	e5933000 	ldr	r3, [r3]
  ac:	e3c3301f 	bic	r3, r3, #31	; 0x1f
  b0:	e5823000 	str	r3, [r2]
  b4:	e59f2098 	ldr	r2, [pc, #152]	; 154 <.text+0x154>
  b8:	e59f3094 	ldr	r3, [pc, #148]	; 154 <.text+0x154>
  bc:	e5933000 	ldr	r3, [r3]
  c0:	e3c33c02 	bic	r3, r3, #512	; 0x200
  c4:	e5823000 	str	r3, [r2]
  c8:	e59f2088 	ldr	r2, [pc, #136]	; 158 <.text+0x158>
  cc:	e59f3084 	ldr	r3, [pc, #132]	; 158 <.text+0x158>
  d0:	e5933000 	ldr	r3, [r3]
  d4:	e3833010 	orr	r3, r3, #16	; 0x10
  d8:	e5823000 	str	r3, [r2]
  dc:	e3a0244a 	mov	r2, #1241513984	; 0x4a000000
  e0:	e3a0344a 	mov	r3, #1241513984	; 0x4a000000
  e4:	e5933000 	ldr	r3, [r3]
  e8:	e3833018 	orr	r3, r3, #24	; 0x18
  ec:	e5823000 	str	r3, [r2]
  f0:	e59f2064 	ldr	r2, [pc, #100]	; 15c <.text+0x15c>
  f4:	e59f3060 	ldr	r3, [pc, #96]	; 15c <.text+0x15c>
  f8:	e5933000 	ldr	r3, [r3]
  fc:	e3833008 	orr	r3, r3, #8	; 0x8
 100:	e5823000 	str	r3, [r2]
 104:	e59f2030 	ldr	r2, [pc, #48]	; 13c <.text+0x13c>
 108:	e59f302c 	ldr	r3, [pc, #44]	; 13c <.text+0x13c>
 10c:	e5933000 	ldr	r3, [r3]
 110:	e3c33018 	bic	r3, r3, #24	; 0x18
 114:	e5823000 	str	r3, [r2]
 118:	e59f2020 	ldr	r2, [pc, #32]	; 140 <.text+0x140>
 11c:	e59f301c 	ldr	r3, [pc, #28]	; 140 <.text+0x140>
 120:	e5933000 	ldr	r3, [r3]
 124:	e3c33010 	bic	r3, r3, #16	; 0x10
 128:	e5823000 	str	r3, [r2]
 12c:	e24bd01c 	sub	sp, fp, #28	; 0x1c
 130:	e89d680f 	ldmia	sp, {r0, r1, r2, r3, fp, sp, lr}
 134:	e8bd1000 	ldmia	sp!, {ip}
 138:	e25ef004 	subs	pc, lr, #4	; 0x4
 13c:	4a000008 	bmi	164 <Key_Port_Init+0x4>
 140:	560000a4 	strpl	r0, [r0], -r4, lsr #1
 144:	56000050 	undefined
 148:	56000058 	undefined
 14c:	00000000 	andeq	r0, r0, r0
 150:	56000014 	undefined
 154:	56000074 	undefined
 158:	560000a8 	strpl	r0, [r0], -r8, lsr #1
 15c:	4a000010 	bmi	1a4 <Key_Port_Init+0x44>

00000160 <Key_Port_Init>:
 160:	e1a0c00d 	mov	ip, sp
 164:	e92dd800 	stmdb	sp!, {fp, ip, lr, pc}
 168:	e24cb004 	sub	fp, ip, #4	; 0x4
 16c:	e59f2070 	ldr	r2, [pc, #112]	; 1e4 <.text+0x1e4>
 170:	e59f306c 	ldr	r3, [pc, #108]	; 1e4 <.text+0x1e4>
 174:	e5933000 	ldr	r3, [r3]
 178:	e3c33d0f 	bic	r3, r3, #960	; 0x3c0
 17c:	e5823000 	str	r3, [r2]
 180:	e59f2060 	ldr	r2, [pc, #96]	; 1e8 <.text+0x1e8>
 184:	e59f305c 	ldr	r3, [pc, #92]	; 1e8 <.text+0x1e8>
 188:	e5933000 	ldr	r3, [r3]
 18c:	e3833018 	orr	r3, r3, #24	; 0x18
 190:	e5823000 	str	r3, [r2]
 194:	e59f2050 	ldr	r2, [pc, #80]	; 1ec <.text+0x1ec>
 198:	e59f304c 	ldr	r3, [pc, #76]	; 1ec <.text+0x1ec>
 19c:	e5933000 	ldr	r3, [r3]
 1a0:	e3c3301f 	bic	r3, r3, #31	; 0x1f
 1a4:	e5823000 	str	r3, [r2]
 1a8:	e59f2040 	ldr	r2, [pc, #64]	; 1f0 <.text+0x1f0>
 1ac:	e59f3040 	ldr	r3, [pc, #64]	; 1f4 <.text+0x1f4>
 1b0:	e5823000 	str	r3, [r2]
 1b4:	e59f203c 	ldr	r2, [pc, #60]	; 1f8 <.text+0x1f8>
 1b8:	e59f3038 	ldr	r3, [pc, #56]	; 1f8 <.text+0x1f8>
 1bc:	e5933000 	ldr	r3, [r3]
 1c0:	e3c33c02 	bic	r3, r3, #512	; 0x200
 1c4:	e5823000 	str	r3, [r2]
 1c8:	e59f202c 	ldr	r2, [pc, #44]	; 1fc <.text+0x1fc>
 1cc:	e59f3028 	ldr	r3, [pc, #40]	; 1fc <.text+0x1fc>
 1d0:	e5933000 	ldr	r3, [r3]
 1d4:	e3c33703 	bic	r3, r3, #786432	; 0xc0000
 1d8:	e3833701 	orr	r3, r3, #262144	; 0x40000
 1dc:	e5823000 	str	r3, [r2]
 1e0:	e89da800 	ldmia	sp, {fp, sp, pc}
 1e4:	56000050 	undefined
 1e8:	56000058 	undefined
 1ec:	56000014 	undefined
 1f0:	56000010 	undefined
 1f4:	00000115 	andeq	r0, r0, r5, lsl r1
 1f8:	56000074 	undefined
 1fc:	56000070 	undefined

00000200 <Key_INT_Init>:
 200:	e1a0c00d 	mov	ip, sp
 204:	e92dd800 	stmdb	sp!, {fp, ip, lr, pc}
 208:	e24cb004 	sub	fp, ip, #4	; 0x4
 20c:	e59f20b8 	ldr	r2, [pc, #184]	; 2cc <.text+0x2cc>
 210:	e59f30b8 	ldr	r3, [pc, #184]	; 2d0 <.text+0x2d0>
 214:	e5823000 	str	r3, [r2]
 218:	e59f20b4 	ldr	r2, [pc, #180]	; 2d4 <.text+0x2d4>
 21c:	e59f30ac 	ldr	r3, [pc, #172]	; 2d0 <.text+0x2d0>
 220:	e5823000 	str	r3, [r2]
 224:	e59f20ac 	ldr	r2, [pc, #172]	; 2d8 <.text+0x2d8>
 228:	e59f30a8 	ldr	r3, [pc, #168]	; 2d8 <.text+0x2d8>
 22c:	e5933000 	ldr	r3, [r3]
 230:	e3c3301f 	bic	r3, r3, #31	; 0x1f
 234:	e5823000 	str	r3, [r2]
 238:	e59f209c 	ldr	r2, [pc, #156]	; 2dc <.text+0x2dc>
 23c:	e59f309c 	ldr	r3, [pc, #156]	; 2e0 <.text+0x2e0>
 240:	e5823000 	str	r3, [r2]
 244:	e59f2098 	ldr	r2, [pc, #152]	; 2e4 <.text+0x2e4>
 248:	e59f3094 	ldr	r3, [pc, #148]	; 2e4 <.text+0x2e4>
 24c:	e5933000 	ldr	r3, [r3]
 250:	e3c33c02 	bic	r3, r3, #512	; 0x200
 254:	e5823000 	str	r3, [r2]
 258:	e59f2088 	ldr	r2, [pc, #136]	; 2e8 <.text+0x2e8>
 25c:	e59f3084 	ldr	r3, [pc, #132]	; 2e8 <.text+0x2e8>
 260:	e5933000 	ldr	r3, [r3]
 264:	e3c33703 	bic	r3, r3, #786432	; 0xc0000
 268:	e3833701 	orr	r3, r3, #262144	; 0x40000
 26c:	e5823000 	str	r3, [r2]
 270:	e59f2074 	ldr	r2, [pc, #116]	; 2ec <.text+0x2ec>
 274:	e59f3070 	ldr	r3, [pc, #112]	; 2ec <.text+0x2ec>
 278:	e5933000 	ldr	r3, [r3]
 27c:	e3c33d0f 	bic	r3, r3, #960	; 0x3c0
 280:	e3833d0a 	orr	r3, r3, #640	; 0x280
 284:	e5823000 	str	r3, [r2]
 288:	e59f2060 	ldr	r2, [pc, #96]	; 2f0 <.text+0x2f0>
 28c:	e59f305c 	ldr	r3, [pc, #92]	; 2f0 <.text+0x2f0>
 290:	e5933000 	ldr	r3, [r3]
 294:	e3c33aff 	bic	r3, r3, #1044480	; 0xff000
 298:	e3833a22 	orr	r3, r3, #139264	; 0x22000
 29c:	e5823000 	str	r3, [r2]
 2a0:	e59f204c 	ldr	r2, [pc, #76]	; 2f4 <.text+0x2f4>
 2a4:	e59f3048 	ldr	r3, [pc, #72]	; 2f4 <.text+0x2f4>
 2a8:	e5933000 	ldr	r3, [r3]
 2ac:	e3c33018 	bic	r3, r3, #24	; 0x18
 2b0:	e5823000 	str	r3, [r2]
 2b4:	e59f203c 	ldr	r2, [pc, #60]	; 2f8 <.text+0x2f8>
 2b8:	e59f3038 	ldr	r3, [pc, #56]	; 2f8 <.text+0x2f8>
 2bc:	e5933000 	ldr	r3, [r3]
 2c0:	e3c33010 	bic	r3, r3, #16	; 0x10
 2c4:	e5823000 	str	r3, [r2]
 2c8:	e89da800 	ldmia	sp, {fp, sp, pc}
 2cc:	33ffff2c 	mvnccs	pc, #176	; 0xb0
 2d0:	00000000 	andeq	r0, r0, r0
 2d4:	33ffff30 	mvnccs	pc, #192	; 0xc0
 2d8:	56000014 	undefined
 2dc:	56000010 	undefined
 2e0:	00000115 	andeq	r0, r0, r5, lsl r1
 2e4:	56000074 	undefined
 2e8:	56000070 	undefined
 2ec:	56000050 	undefined
 2f0:	56000088 	strpl	r0, [r0], -r8, lsl #1
 2f4:	4a000008 	bmi	31c <Key_Get_Pressed+0x20>
 2f8:	560000a4 	strpl	r0, [r0], -r4, lsr #1

000002fc <Key_Get_Pressed>:
 2fc:	e1a0c00d 	mov	ip, sp
 300:	e92dd800 	stmdb	sp!, {fp, ip, lr, pc}
 304:	e24cb004 	sub	fp, ip, #4	; 0x4
 308:	e24dd010 	sub	sp, sp, #16	; 0x10
 30c:	e3a03000 	mov	r3, #0	; 0x0
 310:	e50b3014 	str	r3, [fp, #-20]
 314:	ea0000fb 	b	3f4 <Key_Get_Pressed+0xf8>
 318:	e59f20f8 	ldr	r2, [pc, #248]	; 418 <.text+0x418>
 31c:	e59f30f4 	ldr	r3, [pc, #244]	; 418 <.text+0x418>
 320:	e5933000 	ldr	r3, [r3]
 324:	e383301f 	orr	r3, r3, #31	; 0x1f
 328:	e5823000 	str	r3, [r2]
 32c:	e59f20e8 	ldr	r2, [pc, #232]	; 41c <.text+0x41c>
 330:	e59f30e4 	ldr	r3, [pc, #228]	; 41c <.text+0x41c>
 334:	e5933000 	ldr	r3, [r3]
 338:	e3833c02 	orr	r3, r3, #512	; 0x200
 33c:	e5823000 	str	r3, [r2]
 340:	e51b3014 	ldr	r3, [fp, #-20]
 344:	e3530003 	cmp	r3, #3	; 0x3
 348:	1a0000d8 	bne	368 <Key_Get_Pressed+0x6c>
 34c:	e59f20c8 	ldr	r2, [pc, #200]	; 41c <.text+0x41c>
 350:	e59f30c4 	ldr	r3, [pc, #196]	; 41c <.text+0x41c>
 354:	e5933000 	ldr	r3, [r3]
 358:	e3c33c02 	bic	r3, r3, #512	; 0x200
 35c:	e5823000 	str	r3, [r2]
 360:	e5922000 	ldr	r2, [r2]
 364:	ea0000e2 	b	390 <Key_Get_Pressed+0x94>
 368:	e59f10a8 	ldr	r1, [pc, #168]	; 418 <.text+0x418>
 36c:	e59f30a4 	ldr	r3, [pc, #164]	; 418 <.text+0x418>
 370:	e5930000 	ldr	r0, [r3]
 374:	e3a02001 	mov	r2, #1	; 0x1
 378:	e51b3014 	ldr	r3, [fp, #-20]
 37c:	e1a03312 	mov	r3, r2, lsl r3
 380:	e1e03003 	mvn	r3, r3
 384:	e0003003 	and	r3, r0, r3
 388:	e5813000 	str	r3, [r1]
 38c:	e5911000 	ldr	r1, [r1]
 390:	e59f3088 	ldr	r3, [pc, #136]	; 420 <.text+0x420>
 394:	e5933000 	ldr	r3, [r3]
 398:	e1e03003 	mvn	r3, r3
 39c:	e1a031a3 	mov	r3, r3, lsr #3
 3a0:	e2033003 	and	r3, r3, #3	; 0x3
 3a4:	e50b3010 	str	r3, [fp, #-16]
 3a8:	e51b3010 	ldr	r3, [fp, #-16]
 3ac:	e3530000 	cmp	r3, #0	; 0x0
 3b0:	0a0000f8 	beq	3e8 <Key_Get_Pressed+0xec>
 3b4:	e51b3010 	ldr	r3, [fp, #-16]
 3b8:	e3530003 	cmp	r3, #3	; 0x3
 3bc:	0a0000f8 	beq	3e8 <Key_Get_Pressed+0xec>
 3c0:	e59f3058 	ldr	r3, [pc, #88]	; 420 <.text+0x420>
 3c4:	e5933000 	ldr	r3, [r3]
 3c8:	e1e03003 	mvn	r3, r3
 3cc:	e1a031a3 	mov	r3, r3, lsr #3
 3d0:	e2032003 	and	r2, r3, #3	; 0x3
 3d4:	e51b3014 	ldr	r3, [fp, #-20]
 3d8:	e1a03083 	mov	r3, r3, lsl #1
 3dc:	e0823003 	add	r3, r2, r3
 3e0:	e50b3018 	str	r3, [fp, #-24]
 3e4:	ea000100 	b	408 <Key_Get_Pressed+0x10c>
 3e8:	e51b3014 	ldr	r3, [fp, #-20]
 3ec:	e2833001 	add	r3, r3, #1	; 0x1
 3f0:	e50b3014 	str	r3, [fp, #-20]
 3f4:	e51b3014 	ldr	r3, [fp, #-20]
 3f8:	e3530004 	cmp	r3, #4	; 0x4
 3fc:	da0000c4 	ble	318 <Key_Get_Pressed+0x1c>
 400:	e3a03000 	mov	r3, #0	; 0x0
 404:	e50b3018 	str	r3, [fp, #-24]
 408:	e51b3018 	ldr	r3, [fp, #-24]
 40c:	e1a00003 	mov	r0, r3
 410:	e24bd00c 	sub	sp, fp, #12	; 0xc
 414:	e89da800 	ldmia	sp, {fp, sp, pc}
 418:	56000014 	undefined
 41c:	56000074 	undefined
 420:	56000054 	undefined

00000424 <Key_Wait_Get_Pressed>:
 424:	e1a0c00d 	mov	ip, sp
 428:	e92dd800 	stmdb	sp!, {fp, ip, lr, pc}
 42c:	e24cb004 	sub	fp, ip, #4	; 0x4
 430:	e24dd004 	sub	sp, sp, #4	; 0x4
 434:	ebfffffe 	bl	2fc <Key_Get_Pressed>
 438:	e1a03000 	mov	r3, r0
 43c:	e50b3010 	str	r3, [fp, #-16]
 440:	e51b3010 	ldr	r3, [fp, #-16]
 444:	e3530000 	cmp	r3, #0	; 0x0
 448:	0a00010b 	beq	434 <Key_Wait_Get_Pressed+0x10>
 44c:	e51b3010 	ldr	r3, [fp, #-16]
 450:	e1a00003 	mov	r0, r3
 454:	e89da808 	ldmia	sp, {r3, fp, sp, pc}

00000458 <Key_Wait_Get_Released>:
 458:	e1a0c00d 	mov	ip, sp
 45c:	e92dd800 	stmdb	sp!, {fp, ip, lr, pc}
 460:	e24cb004 	sub	fp, ip, #4	; 0x4
 464:	ebfffffe 	bl	2fc <Key_Get_Pressed>
 468:	e1a03000 	mov	r3, r0
 46c:	e3530000 	cmp	r3, #0	; 0x0
 470:	1a000117 	bne	464 <Key_Wait_Get_Released+0xc>
 474:	e59f0004 	ldr	r0, [pc, #4]	; 480 <.text+0x480>
 478:	ebfffffe 	bl	0 <Uart_Send_String>
 47c:	e89da800 	ldmia	sp, {fp, sp, pc}
 480:	00000010 	andeq	r0, r0, r0, lsl r0